; Function Attrs: mustprogress uwtable
define hidden noundef ptr @pj_putp5(ptr noundef %0) local_unnamed_addr #0 {
  %.not = icmp eq ptr %0, null
  br i1 %.not, label %13, label %2

2:                                                ; preds = %1
  %3 = tail call noalias dereferenceable_or_null(16) ptr @calloc(i64 noundef 1, i64 noundef 16) #6
  %4 = icmp eq ptr %3, null
  br i1 %4, label %5, label %7

5:                                                ; preds = %2
  %6 = tail call noundef ptr @_Z21pj_default_destructorP8PJconstsi(ptr noundef nonnull %0, i32 noundef 4096)
  br label %_Z34pj_projection_specific_setup_putp5P8PJconsts.exit

7:                                                ; preds = %2
  %8 = getelementptr inbounds nuw i8, ptr %0, i64 88
  store ptr %3, ptr %8, align 8, !tbaa !3
  store double 2.000000e+00, ptr %3, align 8, !tbaa !36
  %9 = getelementptr inbounds nuw i8, ptr %3, i64 8
  store double 1.000000e+00, ptr %9, align 8, !tbaa !38
  %10 = getelementptr inbounds nuw i8, ptr %0, i64 216
  store double 0.000000e+00, ptr %10, align 8, !tbaa !39
  %11 = getelementptr inbounds nuw i8, ptr %0, i64 112
  store ptr @_ZL15putp5_s_inverse5PJ_XYP8PJconsts, ptr %11, align 8, !tbaa !40
  %12 = getelementptr inbounds nuw i8, ptr %0, i64 104
  store ptr @_ZL15putp5_s_forward5PJ_LPP8PJconsts, ptr %12, align 8, !tbaa !41
  br label %_Z34pj_projection_specific_setup_putp5P8PJconsts.exit

13:                                               ; preds = %1
  %14 = tail call noundef ptr @_Z6pj_newv()
  %15 = icmp eq ptr %14, null
  br i1 %15, label %_Z34pj_projection_specific_setup_putp5P8PJconsts.exit, label %16

16:                                               ; preds = %13
  %17 = getelementptr inbounds nuw i8, ptr %14, i64 8
  store ptr @.str, ptr %17, align 8, !tbaa !42
  %18 = getelementptr inbounds nuw i8, ptr %14, i64 16
  store ptr @_ZL9des_putp5, ptr %18, align 8, !tbaa !43
  %19 = getelementptr inbounds nuw i8, ptr %14, i64 360
  store i32 1, ptr %19, align 8, !tbaa !44
  %20 = getelementptr inbounds nuw i8, ptr %14, i64 380
  store i32 4, ptr %20, align 4, !tbaa !45
  %21 = getelementptr inbounds nuw i8, ptr %14, i64 384
  store i32 1, ptr %21, align 8, !tbaa !46
  br label %_Z34pj_projection_specific_setup_putp5P8PJconsts.exit

_Z34pj_projection_specific_setup_putp5P8PJconsts.exit: ; preds = %7, %5, %13, %16
  %.0 = phi ptr [ %14, %16 ], [ null, %13 ], [ %6, %5 ], [ %0, %7 ]
  ret ptr %.0
}